; Function Attrs: mustprogress uwtable
define void @uhash_removeAll_77(ptr noundef captures(none) %0) local_unnamed_addr #0 {
  %2 = getelementptr inbounds nuw i8, ptr %0, i64 48
  %3 = load i32, ptr %2, align 8, !tbaa !26
  %.not = icmp eq i32 %3, 0
  br i1 %.not, label %uhash_nextElement_77.exit.thread, label %.preheader

.preheader:                                       ; preds = %1
  %4 = getelementptr inbounds nuw i8, ptr %0, i64 52
  %5 = getelementptr inbounds nuw i8, ptr %0, i64 32
  %6 = getelementptr inbounds nuw i8, ptr %0, i64 40
  br label %7

7:                                                ; preds = %.preheader, %uhash_removeElement_77.exit
  %.0 = phi i64 [ %indvars.iv.next.i, %uhash_removeElement_77.exit ], [ -1, %.preheader ]
  %8 = load i32, ptr %4, align 4, !tbaa !20
  %sext = shl i64 %.0, 32
  %9 = ashr exact i64 %sext, 32
  %10 = sext i32 %8 to i64
  br label %11

11:                                               ; preds = %13, %7
  %indvars.iv.i = phi i64 [ %indvars.iv.next.i, %13 ], [ %9, %7 ]
  %indvars.iv.next.i = add nsw i64 %indvars.iv.i, 1
  %12 = icmp slt i64 %indvars.iv.next.i, %10
  br i1 %12, label %13, label %uhash_nextElement_77.exit.thread

13:                                               ; preds = %11
  %14 = load ptr, ptr %0, align 8, !tbaa !21
  %15 = getelementptr inbounds %struct.UHashElement, ptr %14, i64 %indvars.iv.next.i
  %16 = load i32, ptr %15, align 8, !tbaa !22
  %17 = icmp slt i32 %16, 0
  br i1 %17, label %11, label %18, !llvm.loop !33

18:                                               ; preds = %13
  %19 = load i32, ptr %2, align 8, !tbaa !26
  %20 = add nsw i32 %19, -1
  store i32 %20, ptr %2, align 8, !tbaa !26
  %21 = getelementptr inbounds nuw i8, ptr %15, i64 8
  %.sroa.018.0.copyload.i.i.i = load ptr, ptr %21, align 8, !tbaa !34
  %22 = load ptr, ptr %5, align 8, !tbaa !31
  %.not.i.i.i = icmp eq ptr %22, null
  br i1 %.not.i.i.i, label %27, label %23

23:                                               ; preds = %18
  %24 = getelementptr inbounds nuw i8, ptr %15, i64 16
  %25 = load ptr, ptr %24, align 8, !tbaa !34
  %.not25.i.i.i = icmp eq ptr %25, null
  br i1 %.not25.i.i.i, label %27, label %26

26:                                               ; preds = %23
  tail call void %22(ptr noundef nonnull %25)
  br label %27

27:                                               ; preds = %26, %23, %18
  %28 = load ptr, ptr %6, align 8, !tbaa !32
  %.not26.i.i.i = icmp eq ptr %28, null
  %.not28.i.i.i = icmp eq ptr %.sroa.018.0.copyload.i.i.i, null
  %or.cond = select i1 %.not26.i.i.i, i1 true, i1 %.not28.i.i.i
  br i1 %or.cond, label %uhash_removeElement_77.exit, label %29

29:                                               ; preds = %27
  tail call void %28(ptr noundef nonnull %.sroa.018.0.copyload.i.i.i)
  br label %uhash_removeElement_77.exit

uhash_removeElement_77.exit:                      ; preds = %27, %29
  tail call void @llvm.memset.p0.i64(ptr noundef nonnull align 8 dereferenceable(16) %21, i8 0, i64 16, i1 false)
  store i32 -2147483648, ptr %15, align 8, !tbaa !22
  br label %7, !llvm.loop !39

uhash_nextElement_77.exit.thread:                 ; preds = %11, %1
  ret void
}